target datalayout = "e-m:e-p270:32:32-p271:32:32-p272:64:64-i64:64-i128:128-f80:128-n8:16:32:64-S128"
target triple = "x86_64-pc-linux-gnu"

%struct.OSInfo = type { ptr, ptr, i8, ptr, i32, ptr, i32, ptr }
%struct.ClusterInfo = type { %struct.ControlData, ptr, %struct.DbInfoArr, ptr, ptr, ptr, ptr, ptr, i16, i32, [64 x i8], i32, ptr, i32 }
%struct.ControlData = type { i32, i32, [25 x i8], i32, i32, i32, i32, i32, i32, i32, i32, i32, i32, i32, i32, i32, i32, i32, i32, i8, i8, i32 }
%struct.DbInfoArr = type { ptr, i32 }
%struct.PQExpBufferData = type { ptr, i64, i64 }

@cluster_conn_opts.buf = internal global ptr null, align 8
@.str.3 = private unnamed_addr constant [8 x i8] c"--host \00", align 1
@.str.4 = private unnamed_addr constant [22 x i8] c"--port %d --username \00", align 1
@os_info = external global %struct.OSInfo, align 8

; Function Attrs: nounwind uwtable
define dso_local ptr @cluster_conn_opts(ptr noundef %0) #0 {
  %2 = alloca ptr, align 8
  store ptr %0, ptr %2, align 8
  %3 = load ptr, ptr @cluster_conn_opts.buf, align 8
  %4 = icmp eq ptr %3, null
  br i1 %4, label %5, label %7

5:                                                ; preds = %1
  %6 = call ptr @createPQExpBuffer()
  store ptr %6, ptr @cluster_conn_opts.buf, align 8
  br label %9

7:                                                ; preds = %1
  %8 = load ptr, ptr @cluster_conn_opts.buf, align 8
  call void @resetPQExpBuffer(ptr noundef %8)
  br label %9

9:                                                ; preds = %7, %5
  %10 = load ptr, ptr %2, align 8
  %11 = getelementptr inbounds nuw %struct.ClusterInfo, ptr %10, i32 0, i32 7
  %12 = load ptr, ptr %11, align 8
  %13 = icmp ne ptr %12, null
  br i1 %13, label %14, label %21

14:                                               ; preds = %9
  %15 = load ptr, ptr @cluster_conn_opts.buf, align 8
  call void @appendPQExpBufferStr(ptr noundef %15, ptr noundef @.str.3)
  %16 = load ptr, ptr @cluster_conn_opts.buf, align 8
  %17 = load ptr, ptr %2, align 8
  %18 = getelementptr inbounds nuw %struct.ClusterInfo, ptr %17, i32 0, i32 7
  %19 = load ptr, ptr %18, align 8
  call void @appendShellString(ptr noundef %16, ptr noundef %19)
  %20 = load ptr, ptr @cluster_conn_opts.buf, align 8
  call void @appendPQExpBufferChar(ptr noundef %20, i8 noundef signext 32)
  br label %21

21:                                               ; preds = %14, %9
  %22 = load ptr, ptr @cluster_conn_opts.buf, align 8
  %23 = load ptr, ptr %2, align 8
  %24 = getelementptr inbounds nuw %struct.ClusterInfo, ptr %23, i32 0, i32 8
  %25 = load i16, ptr %24, align 8
  %26 = zext i16 %25 to i32
  call void (ptr, ptr, ...) @appendPQExpBuffer(ptr noundef %22, ptr noundef @.str.4, i32 noundef %26)
  %27 = load ptr, ptr @cluster_conn_opts.buf, align 8
  %28 = load ptr, ptr getelementptr inbounds nuw (%struct.OSInfo, ptr @os_info, i32 0, i32 1), align 8
  call void @appendShellString(ptr noundef %27, ptr noundef %28)
  %29 = load ptr, ptr @cluster_conn_opts.buf, align 8
  %30 = getelementptr inbounds nuw %struct.PQExpBufferData, ptr %29, i32 0, i32 0
  %31 = load ptr, ptr %30, align 8
  ret ptr %31
}