; Function Attrs: nounwind uwtable
define dso_local ptr @cluster_conn_opts(ptr noundef readonly captures(none) %0) local_unnamed_addr #0 {
  %2 = load ptr, ptr @cluster_conn_opts.buf, align 8
  %3 = icmp eq ptr %2, null
  br i1 %3, label %4, label %6

4:                                                ; preds = %1
  %5 = tail call ptr @createPQExpBuffer() #10
  store ptr %5, ptr @cluster_conn_opts.buf, align 8
  br label %7

6:                                                ; preds = %1
  tail call void @resetPQExpBuffer(ptr noundef nonnull %2) #10
  %.pre3.pre = load ptr, ptr @cluster_conn_opts.buf, align 8
  br label %7

7:                                                ; preds = %6, %4
  %.pre3 = phi ptr [ %.pre3.pre, %6 ], [ %5, %4 ]
  %8 = getelementptr inbounds nuw i8, ptr %0, i64 168
  %9 = load ptr, ptr %8, align 8
  %.not = icmp eq ptr %9, null
  br i1 %.not, label %14, label %10

10:                                               ; preds = %7
  tail call void @appendPQExpBufferStr(ptr noundef %.pre3, ptr noundef nonnull @.str.3) #10
  %11 = load ptr, ptr @cluster_conn_opts.buf, align 8
  %12 = load ptr, ptr %8, align 8
  tail call void @appendShellString(ptr noundef %11, ptr noundef %12) #10
  %13 = load ptr, ptr @cluster_conn_opts.buf, align 8
  tail call void @appendPQExpBufferChar(ptr noundef %13, i8 noundef signext 32) #10
  %.pre = load ptr, ptr @cluster_conn_opts.buf, align 8
  br label %14

14:                                               ; preds = %10, %7
  %15 = phi ptr [ %.pre, %10 ], [ %.pre3, %7 ]
  %16 = getelementptr inbounds nuw i8, ptr %0, i64 176
  %17 = load i16, ptr %16, align 8
  %18 = zext i16 %17 to i32
  tail call void (ptr, ptr, ...) @appendPQExpBuffer(ptr noundef %15, ptr noundef nonnull @.str.4, i32 noundef %18) #10
  %19 = load ptr, ptr @cluster_conn_opts.buf, align 8
  %20 = load ptr, ptr getelementptr inbounds nuw (i8, ptr @os_info, i64 8), align 8
  tail call void @appendShellString(ptr noundef %19, ptr noundef %20) #10
  %21 = load ptr, ptr @cluster_conn_opts.buf, align 8
  %22 = load ptr, ptr %21, align 8
  ret ptr %22
}